target datalayout = "e-m:e-p270:32:32-p271:32:32-p272:64:64-i64:64-i128:128-f80:128-n8:16:32:64-S128"
target triple = "x86_64-pc-linux-gnu"

%struct.RelationData = type { %struct.RelFileLocator, ptr, i32, i32, i8, i8, i8, i8, i8, i32, i32, i32, i32, ptr, ptr, i32, %struct.LockInfoData, ptr, ptr, ptr, ptr, ptr, i8, ptr, ptr, ptr, ptr, ptr, ptr, i32, ptr, i8, ptr, ptr, i32, i8, i32, ptr, i8, ptr, ptr, ptr, ptr, ptr, ptr, ptr, i32, ptr, ptr, ptr, ptr, ptr, ptr, ptr, ptr, ptr, ptr, ptr, ptr, ptr, ptr, ptr, ptr, ptr, ptr, ptr, i32, i8, ptr }
%struct.RelFileLocator = type { i32, i32, i32 }
%struct.LockInfoData = type { %struct.LockRelId }
%struct.LockRelId = type { i32, i32 }
%struct.CompactAttribute = type { i32, i16, i8, i8, i8, i8, i8, i8, i8 }
%struct.TupleDescData = type { i32, i32, i32, i32, ptr, [0 x %struct.CompactAttribute] }
%struct.RowSecurityDesc = type { ptr, ptr }

@CacheMemoryContext = external global ptr, align 8
@EOXactTupleDescArrayLen = internal global i32 0, align 4
@NextEOXactTupleDescNum = internal global i32 0, align 4
@EOXactTupleDescArray = internal global ptr null, align 8
@CurrentMemoryContext = external global ptr, align 8

; Function Attrs: inlinehint nounwind uwtable
define internal ptr @MemoryContextSwitchTo(ptr noundef %0) #3 {
  %2 = alloca ptr, align 8
  %3 = alloca ptr, align 8
  store ptr %0, ptr %2, align 8
  call void @llvm.lifetime.start.p0(i64 8, ptr %3) #11
  %4 = load ptr, ptr @CurrentMemoryContext, align 8
  store ptr %4, ptr %3, align 8
  %5 = load ptr, ptr %2, align 8
  store ptr %5, ptr @CurrentMemoryContext, align 8
  %6 = load ptr, ptr %3, align 8
  call void @llvm.lifetime.end.p0(i64 8, ptr %3) #11
  ret ptr %6
}

; Function Attrs: nounwind uwtable
define internal void @RememberToFreeTupleDescAtEOX(ptr noundef %0) #0 {
  %2 = alloca ptr, align 8
  %3 = alloca ptr, align 8
  %4 = alloca i32, align 4
  store ptr %0, ptr %2, align 8
  %5 = load ptr, ptr @EOXactTupleDescArray, align 8
  %6 = icmp eq ptr %5, null
  br i1 %6, label %7, label %13

7:                                                ; preds = %1
  call void @llvm.lifetime.start.p0(i64 8, ptr %3) #11
  %8 = load ptr, ptr @CacheMemoryContext, align 8
  %9 = call ptr @MemoryContextSwitchTo(ptr noundef %8)
  store ptr %9, ptr %3, align 8
  %10 = call ptr @palloc(i64 noundef 128)
  store ptr %10, ptr @EOXactTupleDescArray, align 8
  store i32 16, ptr @EOXactTupleDescArrayLen, align 4
  store i32 0, ptr @NextEOXactTupleDescNum, align 4
  %11 = load ptr, ptr %3, align 8
  %12 = call ptr @MemoryContextSwitchTo(ptr noundef %11)
  call void @llvm.lifetime.end.p0(i64 8, ptr %3) #11
  br label %27

13:                                               ; preds = %1
  %14 = load i32, ptr @NextEOXactTupleDescNum, align 4
  %15 = load i32, ptr @EOXactTupleDescArrayLen, align 4
  %16 = icmp sge i32 %14, %15
  br i1 %16, label %17, label %26

17:                                               ; preds = %13
  call void @llvm.lifetime.start.p0(i64 4, ptr %4) #11
  %18 = load i32, ptr @EOXactTupleDescArrayLen, align 4
  %19 = mul i32 %18, 2
  store i32 %19, ptr %4, align 4
  %20 = load ptr, ptr @EOXactTupleDescArray, align 8
  %21 = load i32, ptr %4, align 4
  %22 = sext i32 %21 to i64
  %23 = mul i64 %22, 8
  %24 = call ptr @repalloc(ptr noundef %20, i64 noundef %23)
  store ptr %24, ptr @EOXactTupleDescArray, align 8
  %25 = load i32, ptr %4, align 4
  store i32 %25, ptr @EOXactTupleDescArrayLen, align 4
  call void @llvm.lifetime.end.p0(i64 4, ptr %4) #11
  br label %26

26:                                               ; preds = %17, %13
  br label %27

27:                                               ; preds = %26, %7
  %28 = load ptr, ptr %2, align 8
  %29 = load ptr, ptr @EOXactTupleDescArray, align 8
  %30 = load i32, ptr @NextEOXactTupleDescNum, align 4
  %31 = add i32 %30, 1
  store i32 %31, ptr @NextEOXactTupleDescNum, align 4
  %32 = sext i32 %30 to i64
  %33 = getelementptr inbounds ptr, ptr %29, i64 %32
  store ptr %28, ptr %33, align 8
  ret void
}

; Function Attrs: inlinehint nounwind uwtable
define internal void @RelationCloseSmgr(ptr noundef %0) #3 {
  %2 = alloca ptr, align 8
  store ptr %0, ptr %2, align 8
  %3 = load ptr, ptr %2, align 8
  %4 = getelementptr inbounds nuw %struct.RelationData, ptr %3, i32 0, i32 1
  %5 = load ptr, ptr %4, align 8
  %6 = icmp ne ptr %5, null
  br i1 %6, label %7, label %16

7:                                                ; preds = %1
  %8 = load ptr, ptr %2, align 8
  %9 = getelementptr inbounds nuw %struct.RelationData, ptr %8, i32 0, i32 1
  %10 = load ptr, ptr %9, align 8
  call void @smgrunpin(ptr noundef %10)
  %11 = load ptr, ptr %2, align 8
  %12 = getelementptr inbounds nuw %struct.RelationData, ptr %11, i32 0, i32 1
  %13 = load ptr, ptr %12, align 8
  call void @smgrclose(ptr noundef %13)
  %14 = load ptr, ptr %2, align 8
  %15 = getelementptr inbounds nuw %struct.RelationData, ptr %14, i32 0, i32 1
  store ptr null, ptr %15, align 8
  br label %16

16:                                               ; preds = %7, %1
  ret void
}

; Function Attrs: nounwind uwtable
define internal void @RelationDestroyRelation(ptr noundef %0, i1 noundef zeroext %1) #0 {
  %3 = alloca ptr, align 8
  %4 = alloca i8, align 1
  store ptr %0, ptr %3, align 8
  %5 = zext i1 %1 to i8
  store i8 %5, ptr %4, align 1
  %6 = load ptr, ptr %3, align 8
  call void @RelationCloseSmgr(ptr noundef %6)
  %7 = load ptr, ptr %3, align 8
  call void @pgstat_unlink_relation(ptr noundef %7)
  %8 = load ptr, ptr %3, align 8
  %9 = getelementptr inbounds nuw %struct.RelationData, ptr %8, i32 0, i32 13
  %10 = load ptr, ptr %9, align 8
  %11 = icmp ne ptr %10, null
  br i1 %11, label %12, label %16

12:                                               ; preds = %2
  %13 = load ptr, ptr %3, align 8
  %14 = getelementptr inbounds nuw %struct.RelationData, ptr %13, i32 0, i32 13
  %15 = load ptr, ptr %14, align 8
  call void @pfree(ptr noundef %15)
  br label %16

16:                                               ; preds = %12, %2
  %17 = load ptr, ptr %3, align 8
  %18 = getelementptr inbounds nuw %struct.RelationData, ptr %17, i32 0, i32 14
  %19 = load ptr, ptr %18, align 8
  %20 = getelementptr inbounds nuw %struct.TupleDescData, ptr %19, i32 0, i32 3
  %21 = load i32, ptr %20, align 4
  %22 = add i32 %21, -1
  store i32 %22, ptr %20, align 4
  %23 = icmp eq i32 %22, 0
  br i1 %23, label %24, label %36

24:                                               ; preds = %16
  %25 = load i8, ptr %4, align 1, !range !4, !noundef !5
  %26 = trunc i8 %25 to i1
  br i1 %26, label %27, label %31

27:                                               ; preds = %24
  %28 = load ptr, ptr %3, align 8
  %29 = getelementptr inbounds nuw %struct.RelationData, ptr %28, i32 0, i32 14
  %30 = load ptr, ptr %29, align 8
  call void @RememberToFreeTupleDescAtEOX(ptr noundef %30)
  br label %35

31:                                               ; preds = %24
  %32 = load ptr, ptr %3, align 8
  %33 = getelementptr inbounds nuw %struct.RelationData, ptr %32, i32 0, i32 14
  %34 = load ptr, ptr %33, align 8
  call void @FreeTupleDesc(ptr noundef %34)
  br label %35

35:                                               ; preds = %31, %27
  br label %36

36:                                               ; preds = %35, %16
  %37 = load ptr, ptr %3, align 8
  %38 = getelementptr inbounds nuw %struct.RelationData, ptr %37, i32 0, i32 19
  %39 = load ptr, ptr %38, align 8
  call void @FreeTriggerDesc(ptr noundef %39)
  %40 = load ptr, ptr %3, align 8
  %41 = getelementptr inbounds nuw %struct.RelationData, ptr %40, i32 0, i32 21
  %42 = load ptr, ptr %41, align 8
  call void @list_free_deep(ptr noundef %42)
  %43 = load ptr, ptr %3, align 8
  %44 = getelementptr inbounds nuw %struct.RelationData, ptr %43, i32 0, i32 33
  %45 = load ptr, ptr %44, align 8
  call void @list_free(ptr noundef %45)
  %46 = load ptr, ptr %3, align 8
  %47 = getelementptr inbounds nuw %struct.RelationData, ptr %46, i32 0, i32 37
  %48 = load ptr, ptr %47, align 8
  call void @list_free(ptr noundef %48)
  %49 = load ptr, ptr %3, align 8
  %50 = getelementptr inbounds nuw %struct.RelationData, ptr %49, i32 0, i32 39
  %51 = load ptr, ptr %50, align 8
  call void @bms_free(ptr noundef %51)
  %52 = load ptr, ptr %3, align 8
  %53 = getelementptr inbounds nuw %struct.RelationData, ptr %52, i32 0, i32 40
  %54 = load ptr, ptr %53, align 8
  call void @bms_free(ptr noundef %54)
  %55 = load ptr, ptr %3, align 8
  %56 = getelementptr inbounds nuw %struct.RelationData, ptr %55, i32 0, i32 41
  %57 = load ptr, ptr %56, align 8
  call void @bms_free(ptr noundef %57)
  %58 = load ptr, ptr %3, align 8
  %59 = getelementptr inbounds nuw %struct.RelationData, ptr %58, i32 0, i32 42
  %60 = load ptr, ptr %59, align 8
  call void @bms_free(ptr noundef %60)
  %61 = load ptr, ptr %3, align 8
  %62 = getelementptr inbounds nuw %struct.RelationData, ptr %61, i32 0, i32 43
  %63 = load ptr, ptr %62, align 8
  call void @bms_free(ptr noundef %63)
  %64 = load ptr, ptr %3, align 8
  %65 = getelementptr inbounds nuw %struct.RelationData, ptr %64, i32 0, i32 44
  %66 = load ptr, ptr %65, align 8
  %67 = icmp ne ptr %66, null
  br i1 %67, label %68, label %72

68:                                               ; preds = %36
  %69 = load ptr, ptr %3, align 8
  %70 = getelementptr inbounds nuw %struct.RelationData, ptr %69, i32 0, i32 44
  %71 = load ptr, ptr %70, align 8
  call void @pfree(ptr noundef %71)
  br label %72

72:                                               ; preds = %68, %36
  %73 = load ptr, ptr %3, align 8
  %74 = getelementptr inbounds nuw %struct.RelationData, ptr %73, i32 0, i32 45
  %75 = load ptr, ptr %74, align 8
  %76 = icmp ne ptr %75, null
  br i1 %76, label %77, label %81

77:                                               ; preds = %72
  %78 = load ptr, ptr %3, align 8
  %79 = getelementptr inbounds nuw %struct.RelationData, ptr %78, i32 0, i32 45
  %80 = load ptr, ptr %79, align 8
  call void @pfree(ptr noundef %80)
  br label %81

81:                                               ; preds = %77, %72
  %82 = load ptr, ptr %3, align 8
  %83 = getelementptr inbounds nuw %struct.RelationData, ptr %82, i32 0, i32 49
  %84 = load ptr, ptr %83, align 8
  %85 = icmp ne ptr %84, null
  br i1 %85, label %86, label %90

86:                                               ; preds = %81
  %87 = load ptr, ptr %3, align 8
  %88 = getelementptr inbounds nuw %struct.RelationData, ptr %87, i32 0, i32 49
  %89 = load ptr, ptr %88, align 8
  call void @pfree(ptr noundef %89)
  br label %90

90:                                               ; preds = %86, %81
  %91 = load ptr, ptr %3, align 8
  %92 = getelementptr inbounds nuw %struct.RelationData, ptr %91, i32 0, i32 64
  %93 = load ptr, ptr %92, align 8
  %94 = icmp ne ptr %93, null
  br i1 %94, label %95, label %99

95:                                               ; preds = %90
  %96 = load ptr, ptr %3, align 8
  %97 = getelementptr inbounds nuw %struct.RelationData, ptr %96, i32 0, i32 64
  %98 = load ptr, ptr %97, align 8
  call void @pfree(ptr noundef %98)
  br label %99

99:                                               ; preds = %95, %90
  %100 = load ptr, ptr %3, align 8
  %101 = getelementptr inbounds nuw %struct.RelationData, ptr %100, i32 0, i32 65
  %102 = load ptr, ptr %101, align 8
  %103 = icmp ne ptr %102, null
  br i1 %103, label %104, label %108

104:                                              ; preds = %99
  %105 = load ptr, ptr %3, align 8
  %106 = getelementptr inbounds nuw %struct.RelationData, ptr %105, i32 0, i32 65
  %107 = load ptr, ptr %106, align 8
  call void @pfree(ptr noundef %107)
  br label %108

108:                                              ; preds = %104, %99
  %109 = load ptr, ptr %3, align 8
  %110 = getelementptr inbounds nuw %struct.RelationData, ptr %109, i32 0, i32 50
  %111 = load ptr, ptr %110, align 8
  %112 = icmp ne ptr %111, null
  br i1 %112, label %113, label %117

113:                                              ; preds = %108
  %114 = load ptr, ptr %3, align 8
  %115 = getelementptr inbounds nuw %struct.RelationData, ptr %114, i32 0, i32 50
  %116 = load ptr, ptr %115, align 8
  call void @MemoryContextDelete(ptr noundef %116)
  br label %117

117:                                              ; preds = %113, %108
  %118 = load ptr, ptr %3, align 8
  %119 = getelementptr inbounds nuw %struct.RelationData, ptr %118, i32 0, i32 18
  %120 = load ptr, ptr %119, align 8
  %121 = icmp ne ptr %120, null
  br i1 %121, label %122, label %126

122:                                              ; preds = %117
  %123 = load ptr, ptr %3, align 8
  %124 = getelementptr inbounds nuw %struct.RelationData, ptr %123, i32 0, i32 18
  %125 = load ptr, ptr %124, align 8
  call void @MemoryContextDelete(ptr noundef %125)
  br label %126

126:                                              ; preds = %122, %117
  %127 = load ptr, ptr %3, align 8
  %128 = getelementptr inbounds nuw %struct.RelationData, ptr %127, i32 0, i32 20
  %129 = load ptr, ptr %128, align 8
  %130 = icmp ne ptr %129, null
  br i1 %130, label %131, label %137

131:                                              ; preds = %126
  %132 = load ptr, ptr %3, align 8
  %133 = getelementptr inbounds nuw %struct.RelationData, ptr %132, i32 0, i32 20
  %134 = load ptr, ptr %133, align 8
  %135 = getelementptr inbounds nuw %struct.RowSecurityDesc, ptr %134, i32 0, i32 0
  %136 = load ptr, ptr %135, align 8
  call void @MemoryContextDelete(ptr noundef %136)
  br label %137

137:                                              ; preds = %131, %126
  %138 = load ptr, ptr %3, align 8
  %139 = getelementptr inbounds nuw %struct.RelationData, ptr %138, i32 0, i32 24
  %140 = load ptr, ptr %139, align 8
  %141 = icmp ne ptr %140, null
  br i1 %141, label %142, label %146

142:                                              ; preds = %137
  %143 = load ptr, ptr %3, align 8
  %144 = getelementptr inbounds nuw %struct.RelationData, ptr %143, i32 0, i32 24
  %145 = load ptr, ptr %144, align 8
  call void @MemoryContextDelete(ptr noundef %145)
  br label %146

146:                                              ; preds = %142, %137
  %147 = load ptr, ptr %3, align 8
  %148 = getelementptr inbounds nuw %struct.RelationData, ptr %147, i32 0, i32 26
  %149 = load ptr, ptr %148, align 8
  %150 = icmp ne ptr %149, null
  br i1 %150, label %151, label %155

151:                                              ; preds = %146
  %152 = load ptr, ptr %3, align 8
  %153 = getelementptr inbounds nuw %struct.RelationData, ptr %152, i32 0, i32 26
  %154 = load ptr, ptr %153, align 8
  call void @MemoryContextDelete(ptr noundef %154)
  br label %155

155:                                              ; preds = %151, %146
  %156 = load ptr, ptr %3, align 8
  %157 = getelementptr inbounds nuw %struct.RelationData, ptr %156, i32 0, i32 28
  %158 = load ptr, ptr %157, align 8
  %159 = icmp ne ptr %158, null
  br i1 %159, label %160, label %164

160:                                              ; preds = %155
  %161 = load ptr, ptr %3, align 8
  %162 = getelementptr inbounds nuw %struct.RelationData, ptr %161, i32 0, i32 28
  %163 = load ptr, ptr %162, align 8
  call void @MemoryContextDelete(ptr noundef %163)
  br label %164

164:                                              ; preds = %160, %155
  %165 = load ptr, ptr %3, align 8
  %166 = getelementptr inbounds nuw %struct.RelationData, ptr %165, i32 0, i32 32
  %167 = load ptr, ptr %166, align 8
  %168 = icmp ne ptr %167, null
  br i1 %168, label %169, label %173

169:                                              ; preds = %164
  %170 = load ptr, ptr %3, align 8
  %171 = getelementptr inbounds nuw %struct.RelationData, ptr %170, i32 0, i32 32
  %172 = load ptr, ptr %171, align 8
  call void @MemoryContextDelete(ptr noundef %172)
  br label %173

173:                                              ; preds = %169, %164
  %174 = load ptr, ptr %3, align 8
  call void @pfree(ptr noundef %174)
  ret void
}