; Function Attrs: nounwind uwtable
define internal fastcc void @RelationDestroyRelation(ptr noundef %0, i1 noundef zeroext %1) unnamed_addr #0 {
  %3 = getelementptr inbounds nuw i8, ptr %0, i64 16
  %4 = load ptr, ptr %3, align 8
  %.not.i = icmp eq ptr %4, null
  br i1 %.not.i, label %RelationCloseSmgr.exit, label %5

5:                                                ; preds = %2
  tail call void @smgrunpin(ptr noundef nonnull %4) #13
  %6 = load ptr, ptr %3, align 8
  tail call void @smgrclose(ptr noundef %6) #13
  store ptr null, ptr %3, align 8
  br label %RelationCloseSmgr.exit

RelationCloseSmgr.exit:                           ; preds = %2, %5
  tail call void @pgstat_unlink_relation(ptr noundef nonnull %0) #13
  %7 = getelementptr inbounds nuw i8, ptr %0, i64 56
  %8 = load ptr, ptr %7, align 8
  %.not = icmp eq ptr %8, null
  br i1 %.not, label %10, label %9

9:                                                ; preds = %RelationCloseSmgr.exit
  tail call void @pfree(ptr noundef nonnull %8) #13
  br label %10

10:                                               ; preds = %9, %RelationCloseSmgr.exit
  %11 = getelementptr inbounds nuw i8, ptr %0, i64 64
  %12 = load ptr, ptr %11, align 8
  %13 = getelementptr inbounds nuw i8, ptr %12, i64 12
  %14 = load i32, ptr %13, align 4
  %15 = add i32 %14, -1
  store i32 %15, ptr %13, align 4
  %16 = icmp eq i32 %15, 0
  br i1 %16, label %17, label %40

17:                                               ; preds = %10
  %18 = load ptr, ptr %11, align 8
  br i1 %1, label %19, label %39

19:                                               ; preds = %17
  %20 = load ptr, ptr @EOXactTupleDescArray, align 8
  %21 = icmp eq ptr %20, null
  br i1 %21, label %22, label %26

22:                                               ; preds = %19
  %23 = load ptr, ptr @CacheMemoryContext, align 8
  %24 = load ptr, ptr @CurrentMemoryContext, align 8
  store ptr %23, ptr @CurrentMemoryContext, align 8
  %25 = tail call ptr @palloc(i64 noundef 128) #13
  store ptr %25, ptr @EOXactTupleDescArray, align 8
  store i32 16, ptr @EOXactTupleDescArrayLen, align 4
  store ptr %24, ptr @CurrentMemoryContext, align 8
  br label %RememberToFreeTupleDescAtEOX.exit

26:                                               ; preds = %19
  %27 = load i32, ptr @NextEOXactTupleDescNum, align 4
  %28 = load i32, ptr @EOXactTupleDescArrayLen, align 4
  %.not.i65 = icmp slt i32 %27, %28
  br i1 %.not.i65, label %RememberToFreeTupleDescAtEOX.exit, label %29

29:                                               ; preds = %26
  %30 = shl i32 %28, 1
  %31 = sext i32 %30 to i64
  %32 = shl nsw i64 %31, 3
  %33 = tail call ptr @repalloc(ptr noundef nonnull %20, i64 noundef %32) #13
  store ptr %33, ptr @EOXactTupleDescArray, align 8
  store i32 %30, ptr @EOXactTupleDescArrayLen, align 4
  %.pre.i = load i32, ptr @NextEOXactTupleDescNum, align 4
  br label %RememberToFreeTupleDescAtEOX.exit

RememberToFreeTupleDescAtEOX.exit:                ; preds = %22, %26, %29
  %34 = phi i32 [ %27, %26 ], [ %.pre.i, %29 ], [ 0, %22 ]
  %35 = phi ptr [ %20, %26 ], [ %33, %29 ], [ %25, %22 ]
  %36 = add i32 %34, 1
  store i32 %36, ptr @NextEOXactTupleDescNum, align 4
  %37 = sext i32 %34 to i64
  %38 = getelementptr inbounds ptr, ptr %35, i64 %37
  store ptr %18, ptr %38, align 8
  br label %40

39:                                               ; preds = %17
  tail call void @FreeTupleDesc(ptr noundef %18) #13
  br label %40

40:                                               ; preds = %RememberToFreeTupleDescAtEOX.exit, %39, %10
  %41 = getelementptr inbounds nuw i8, ptr %0, i64 104
  %42 = load ptr, ptr %41, align 8
  tail call void @FreeTriggerDesc(ptr noundef %42) #13
  %43 = getelementptr inbounds nuw i8, ptr %0, i64 120
  %44 = load ptr, ptr %43, align 8
  tail call void @list_free_deep(ptr noundef %44) #13
  %45 = getelementptr inbounds nuw i8, ptr %0, i64 216
  %46 = load ptr, ptr %45, align 8
  tail call void @list_free(ptr noundef %46) #13
  %47 = getelementptr inbounds nuw i8, ptr %0, i64 240
  %48 = load ptr, ptr %47, align 8
  tail call void @list_free(ptr noundef %48) #13
  %49 = getelementptr inbounds nuw i8, ptr %0, i64 256
  %50 = load ptr, ptr %49, align 8
  tail call void @bms_free(ptr noundef %50) #13
  %51 = getelementptr inbounds nuw i8, ptr %0, i64 264
  %52 = load ptr, ptr %51, align 8
  tail call void @bms_free(ptr noundef %52) #13
  %53 = getelementptr inbounds nuw i8, ptr %0, i64 272
  %54 = load ptr, ptr %53, align 8
  tail call void @bms_free(ptr noundef %54) #13
  %55 = getelementptr inbounds nuw i8, ptr %0, i64 280
  %56 = load ptr, ptr %55, align 8
  tail call void @bms_free(ptr noundef %56) #13
  %57 = getelementptr inbounds nuw i8, ptr %0, i64 288
  %58 = load ptr, ptr %57, align 8
  tail call void @bms_free(ptr noundef %58) #13
  %59 = getelementptr inbounds nuw i8, ptr %0, i64 296
  %60 = load ptr, ptr %59, align 8
  %.not53 = icmp eq ptr %60, null
  br i1 %.not53, label %62, label %61

61:                                               ; preds = %40
  tail call void @pfree(ptr noundef nonnull %60) #13
  br label %62

62:                                               ; preds = %61, %40
  %63 = getelementptr inbounds nuw i8, ptr %0, i64 304
  %64 = load ptr, ptr %63, align 8
  %.not54 = icmp eq ptr %64, null
  br i1 %.not54, label %66, label %65

65:                                               ; preds = %62
  tail call void @pfree(ptr noundef nonnull %64) #13
  br label %66

66:                                               ; preds = %65, %62
  %67 = getelementptr inbounds nuw i8, ptr %0, i64 336
  %68 = load ptr, ptr %67, align 8
  %.not55 = icmp eq ptr %68, null
  br i1 %.not55, label %70, label %69

69:                                               ; preds = %66
  tail call void @pfree(ptr noundef nonnull %68) #13
  br label %70

70:                                               ; preds = %69, %66
  %71 = getelementptr inbounds nuw i8, ptr %0, i64 456
  %72 = load ptr, ptr %71, align 8
  %.not56 = icmp eq ptr %72, null
  br i1 %.not56, label %74, label %73

73:                                               ; preds = %70
  tail call void @pfree(ptr noundef nonnull %72) #13
  br label %74

74:                                               ; preds = %73, %70
  %75 = getelementptr inbounds nuw i8, ptr %0, i64 464
  %76 = load ptr, ptr %75, align 8
  %.not57 = icmp eq ptr %76, null
  br i1 %.not57, label %78, label %77

77:                                               ; preds = %74
  tail call void @pfree(ptr noundef nonnull %76) #13
  br label %78

78:                                               ; preds = %77, %74
  %79 = getelementptr inbounds nuw i8, ptr %0, i64 344
  %80 = load ptr, ptr %79, align 8
  %.not58 = icmp eq ptr %80, null
  br i1 %.not58, label %82, label %81

81:                                               ; preds = %78
  tail call void @MemoryContextDelete(ptr noundef nonnull %80) #13
  br label %82

82:                                               ; preds = %81, %78
  %83 = getelementptr inbounds nuw i8, ptr %0, i64 96
  %84 = load ptr, ptr %83, align 8
  %.not59 = icmp eq ptr %84, null
  br i1 %.not59, label %86, label %85

85:                                               ; preds = %82
  tail call void @MemoryContextDelete(ptr noundef nonnull %84) #13
  br label %86

86:                                               ; preds = %85, %82
  %87 = getelementptr inbounds nuw i8, ptr %0, i64 112
  %88 = load ptr, ptr %87, align 8
  %.not60 = icmp eq ptr %88, null
  br i1 %.not60, label %91, label %89

89:                                               ; preds = %86
  %90 = load ptr, ptr %88, align 8
  tail call void @MemoryContextDelete(ptr noundef %90) #13
  br label %91

91:                                               ; preds = %89, %86
  %92 = getelementptr inbounds nuw i8, ptr %0, i64 144
  %93 = load ptr, ptr %92, align 8
  %.not61 = icmp eq ptr %93, null
  br i1 %.not61, label %95, label %94

94:                                               ; preds = %91
  tail call void @MemoryContextDelete(ptr noundef nonnull %93) #13
  br label %95

95:                                               ; preds = %94, %91
  %96 = getelementptr inbounds nuw i8, ptr %0, i64 160
  %97 = load ptr, ptr %96, align 8
  %.not62 = icmp eq ptr %97, null
  br i1 %.not62, label %99, label %98

98:                                               ; preds = %95
  tail call void @MemoryContextDelete(ptr noundef nonnull %97) #13
  br label %99

99:                                               ; preds = %98, %95
  %100 = getelementptr inbounds nuw i8, ptr %0, i64 176
  %101 = load ptr, ptr %100, align 8
  %.not63 = icmp eq ptr %101, null
  br i1 %.not63, label %103, label %102

102:                                              ; preds = %99
  tail call void @MemoryContextDelete(ptr noundef nonnull %101) #13
  br label %103

103:                                              ; preds = %102, %99
  %104 = getelementptr inbounds nuw i8, ptr %0, i64 208
  %105 = load ptr, ptr %104, align 8
  %.not64 = icmp eq ptr %105, null
  br i1 %.not64, label %107, label %106

106:                                              ; preds = %103
  tail call void @MemoryContextDelete(ptr noundef nonnull %105) #13
  br label %107

107:                                              ; preds = %106, %103
  tail call void @pfree(ptr noundef nonnull %0) #13
  ret void
}